; Function Attrs: nounwind uwtable
define internal fastcc ptr @cff_index_get_name(ptr noundef %0, i32 noundef %1) unnamed_addr #4 {
  %3 = alloca ptr, align 8
  %4 = alloca i64, align 8
  %5 = alloca i32, align 4
  %6 = getelementptr inbounds i8, ptr %0, i64 56
  %7 = load ptr, ptr %6, align 8
  %.not = icmp eq ptr %7, null
  br i1 %.not, label %cff_index_forget_element.exit, label %8

8:                                                ; preds = %2
  %9 = getelementptr inbounds i8, ptr %7, i64 56
  %10 = load ptr, ptr %9, align 8
  %11 = call fastcc i32 @cff_index_access_element(ptr noundef nonnull %6, i32 noundef %1, ptr noundef nonnull %3, ptr noundef nonnull %4)
  store i32 %11, ptr %5, align 4
  %.not10 = icmp eq i32 %11, 0
  br i1 %.not10, label %12, label %cff_index_forget_element.exit

12:                                               ; preds = %8
  %13 = load i64, ptr %4, align 8
  %14 = add i64 %13, 1
  %15 = call ptr @ft_mem_qalloc(ptr noundef %10, i64 noundef %14, ptr noundef nonnull %5) #20
  %16 = load i32, ptr %5, align 4
  %.not11 = icmp eq i32 %16, 0
  br i1 %.not11, label %17, label %20

17:                                               ; preds = %12
  %18 = load ptr, ptr %3, align 8
  call void @llvm.memcpy.p0.p0.i64(ptr align 1 %15, ptr align 1 %18, i64 %13, i1 false)
  %19 = getelementptr inbounds i8, ptr %15, i64 %13
  store i8 0, ptr %19, align 1
  br label %20

20:                                               ; preds = %17, %12
  %21 = getelementptr inbounds i8, ptr %0, i64 112
  %22 = load ptr, ptr %21, align 8
  %23 = icmp eq ptr %22, null
  br i1 %23, label %24, label %cff_index_forget_element.exit

24:                                               ; preds = %20
  %25 = load ptr, ptr %6, align 8
  call void @FT_Stream_ReleaseFrame(ptr noundef %25, ptr noundef nonnull %3) #20
  br label %cff_index_forget_element.exit

cff_index_forget_element.exit:                    ; preds = %24, %20, %8, %2
  %.0 = phi ptr [ null, %8 ], [ null, %2 ], [ %15, %20 ], [ %15, %24 ]
  ret ptr %.0
}